; Function Attrs: nounwind uwtable
define ptr @l___private_Lean_Elab_Tactic_BVDecide_Frontend_Normalize_Enums_0__Lean_Elab_Tactic_BVDecide_Frontend_Normalize_getMatchEqCondForAux_handleSimpleEnum___lambda__1(ptr noundef readonly captures(none) %0, ptr noundef %1, ptr noundef %2) local_unnamed_addr #1 {
  %4 = load ptr, ptr @l_Lean_instInhabitedConstructorVal, align 8, !tbaa !11
  %5 = ptrtoint ptr %2 to i64
  %6 = and i64 %5, 1
  %.not.i13 = icmp eq i64 %6, 0
  br i1 %.not.i13, label %lean_array_uget.exit.i, label %7

7:                                                ; preds = %3
  %8 = lshr i64 %5, 1
  %9 = getelementptr i8, ptr %0, i64 8
  %.val.i = load i64, ptr %9, align 8, !tbaa !9
  %10 = icmp ult i64 %8, %.val.i
  br i1 %10, label %11, label %lean_array_uget.exit.i

11:                                               ; preds = %7
  %12 = ptrtoint ptr %4 to i64
  %13 = and i64 %12, 1
  %.not14.i = icmp eq i64 %13, 0
  br i1 %.not14.i, label %14, label %lean_dec.exit.i

14:                                               ; preds = %11
  %15 = load i32, ptr %4, align 4, !tbaa !4
  %16 = icmp sgt i32 %15, 1
  br i1 %16, label %17, label %19, !prof !13

17:                                               ; preds = %14
  %18 = add nsw i32 %15, -1
  store i32 %18, ptr %4, align 4, !tbaa !4
  br label %lean_dec.exit.i

19:                                               ; preds = %14
  %.not.i.i = icmp eq i32 %15, 0
  br i1 %.not.i.i, label %lean_dec.exit.i, label %20

20:                                               ; preds = %19
  tail call void @lean_dec_ref_cold(ptr noundef nonnull %4) #7
  br label %lean_dec.exit.i

lean_dec.exit.i:                                  ; preds = %20, %19, %17, %11
  %21 = getelementptr inbounds nuw i8, ptr %0, i64 24
  %22 = getelementptr inbounds nuw [0 x ptr], ptr %21, i64 0, i64 %8
  %23 = load ptr, ptr %22, align 8, !tbaa !11
  %24 = ptrtoint ptr %23 to i64
  %25 = and i64 %24, 1
  %.not.i11.i = icmp eq i64 %25, 0
  br i1 %.not.i11.i, label %26, label %lean_array_get.exit

26:                                               ; preds = %lean_dec.exit.i
  %.val.i.i.i = load i32, ptr %23, align 4, !tbaa !4
  %27 = icmp sgt i32 %.val.i.i.i, 0
  br i1 %27, label %28, label %30, !prof !13

28:                                               ; preds = %26
  %29 = add nuw i32 %.val.i.i.i, 1
  store i32 %29, ptr %23, align 4, !tbaa !4
  br label %lean_array_get.exit

30:                                               ; preds = %26
  %.not.i.i.i = icmp eq i32 %.val.i.i.i, 0
  br i1 %.not.i.i.i, label %lean_array_get.exit, label %31

31:                                               ; preds = %30
  tail call void @lean_inc_ref_cold(ptr noundef nonnull %23) #7
  br label %lean_array_get.exit

lean_array_uget.exit.i:                           ; preds = %7, %3
  %32 = tail call ptr @lean_array_get_panic(ptr noundef %4) #7
  br label %lean_array_get.exit

lean_array_get.exit:                              ; preds = %lean_dec.exit.i, %28, %30, %31, %lean_array_uget.exit.i
  %.1.i = phi ptr [ %32, %lean_array_uget.exit.i ], [ %23, %31 ], [ %23, %30 ], [ %23, %28 ], [ %23, %lean_dec.exit.i ]
  %33 = getelementptr inbounds nuw i8, ptr %.1.i, i64 24
  %34 = load ptr, ptr %33, align 8, !tbaa !11
  %35 = ptrtoint ptr %34 to i64
  %36 = and i64 %35, 1
  %.not = icmp eq i64 %36, 0
  br i1 %.not, label %37, label %lean_inc.exit

37:                                               ; preds = %lean_array_get.exit
  %.val.i14 = load i32, ptr %34, align 4, !tbaa !4
  %38 = icmp sgt i32 %.val.i14, 0
  br i1 %38, label %39, label %41, !prof !13

39:                                               ; preds = %37
  %40 = add nuw i32 %.val.i14, 1
  store i32 %40, ptr %34, align 4, !tbaa !4
  br label %lean_inc.exit

41:                                               ; preds = %37
  %.not.i15 = icmp eq i32 %.val.i14, 0
  br i1 %.not.i15, label %lean_inc.exit, label %42

42:                                               ; preds = %41
  tail call void @lean_inc_ref_cold(ptr noundef nonnull %34) #7
  br label %lean_inc.exit

lean_inc.exit:                                    ; preds = %42, %41, %39, %lean_array_get.exit
  %43 = ptrtoint ptr %.1.i to i64
  %44 = and i64 %43, 1
  %.not16 = icmp eq i64 %44, 0
  br i1 %.not16, label %45, label %lean_dec.exit10

45:                                               ; preds = %lean_inc.exit
  %46 = load i32, ptr %.1.i, align 4, !tbaa !4
  %47 = icmp sgt i32 %46, 1
  br i1 %47, label %48, label %50, !prof !13

48:                                               ; preds = %45
  %49 = add nsw i32 %46, -1
  store i32 %49, ptr %.1.i, align 4, !tbaa !4
  br label %lean_dec.exit10

50:                                               ; preds = %45
  %.not.i = icmp eq i32 %46, 0
  br i1 %.not.i, label %lean_dec.exit10, label %51

51:                                               ; preds = %50
  tail call void @lean_dec_ref_cold(ptr noundef nonnull %.1.i) #7
  br label %lean_dec.exit10

lean_dec.exit10:                                  ; preds = %51, %50, %48, %lean_inc.exit
  %52 = tail call ptr @l_BitVec_ofNat(ptr noundef %1, ptr noundef %34) #7
  br i1 %.not, label %53, label %lean_dec.exit

53:                                               ; preds = %lean_dec.exit10
  %54 = load i32, ptr %34, align 4, !tbaa !4
  %55 = icmp sgt i32 %54, 1
  br i1 %55, label %56, label %58, !prof !13

56:                                               ; preds = %53
  %57 = add nsw i32 %54, -1
  store i32 %57, ptr %34, align 4, !tbaa !4
  br label %lean_dec.exit

58:                                               ; preds = %53
  %.not.i11 = icmp eq i32 %54, 0
  br i1 %.not.i11, label %lean_dec.exit, label %59

59:                                               ; preds = %58
  tail call void @lean_dec_ref_cold(ptr noundef nonnull %34) #7
  br label %lean_dec.exit

lean_dec.exit:                                    ; preds = %59, %58, %56, %lean_dec.exit10
  ret ptr %52
}